target datalayout = "e-m:e-p270:32:32-p271:32:32-p272:64:64-i64:64-i128:128-f80:128-n8:16:32:64-S128"
target triple = "x86_64-unknown-linux-gnu"

%"class.google::protobuf::internal::InternalMetadata" = type { i64 }
%"class.google::protobuf::internal::CachedSize" = type { i32 }
%"class.google::protobuf::Message" = type { %"class.google::protobuf::MessageLite" }
%"class.google::protobuf::MessageLite" = type { ptr, %"class.google::protobuf::internal::InternalMetadata" }
%"class.absl::lts_20230802::log_internal::NullStream" = type { i8 }
%"struct.google::protobuf::internal::InternalMetadata::Container" = type { %"struct.google::protobuf::internal::InternalMetadata::ContainerBase", %"class.google::protobuf::UnknownFieldSet" }
%"struct.google::protobuf::internal::InternalMetadata::ContainerBase" = type { ptr }
%"class.google::protobuf::UnknownFieldSet" = type { %"class.std::vector" }
%"class.std::vector" = type { %"struct.std::_Vector_base" }
%"struct.std::_Vector_base" = type { %"struct.std::_Vector_base<google::protobuf::UnknownField, std::allocator<google::protobuf::UnknownField>>::_Vector_impl" }
%"struct.std::_Vector_base<google::protobuf::UnknownField, std::allocator<google::protobuf::UnknownField>>::_Vector_impl" = type { %"struct.std::_Vector_base<google::protobuf::UnknownField, std::allocator<google::protobuf::UnknownField>>::_Vector_impl_data" }
%"struct.std::_Vector_base<google::protobuf::UnknownField, std::allocator<google::protobuf::UnknownField>>::_Vector_impl_data" = type { ptr, ptr, ptr }
%"class.google::protobuf::Int64Value" = type { %"class.google::protobuf::Message", %union.anon.5 }
%union.anon.5 = type { %"struct.google::protobuf::Int64Value::Impl_" }
%"struct.google::protobuf::Int64Value::Impl_" = type <{ i64, %"class.google::protobuf::internal::CachedSize", [4 x i8] }>

; Function Attrs: mustprogress nounwind uwtable
define linkonce_odr hidden noundef ptr @_ZNK6google8protobuf8internal16InternalMetadata8PtrValueINS2_9ContainerINS0_15UnknownFieldSetEEEEEPT_v(ptr noundef nonnull align 8 dereferenceable(8) %this) #5 comdat align 2 {
entry:
  %this.addr = alloca ptr, align 8
  store ptr %this, ptr %this.addr, align 8
  %this1 = load ptr, ptr %this.addr, align 8
  %ptr_ = getelementptr inbounds %"class.google::protobuf::internal::InternalMetadata", ptr %this1, i32 0, i32 0
  %0 = load i64, ptr %ptr_, align 8
  %and = and i64 %0, -2
  %1 = inttoptr i64 %and to ptr
  ret ptr %1
}

; Function Attrs: mustprogress nounwind uwtable
define linkonce_odr hidden noundef i64 @_ZNK6google8protobuf10Int64Value15_internal_valueEv(ptr noundef nonnull align 8 dereferenceable(32) %this) #5 comdat align 2 {
entry:
  %this.addr = alloca ptr, align 8
  store ptr %this, ptr %this.addr, align 8
  %this1 = load ptr, ptr %this.addr, align 8
  %0 = getelementptr inbounds %"class.google::protobuf::Int64Value", ptr %this1, i32 0, i32 1
  %value_ = getelementptr inbounds %"struct.google::protobuf::Int64Value::Impl_", ptr %0, i32 0, i32 0
  %1 = load i64, ptr %value_, align 8
  ret i64 %1
}

; Function Attrs: mustprogress nounwind uwtable
define linkonce_odr hidden noundef nonnull align 1 dereferenceable(1) ptr @_ZN4absl12lts_2023080212log_internal10NullStream14InternalStreamEv(ptr noundef nonnull align 1 dereferenceable(1) %this) #5 comdat align 2 {
entry:
  %this.addr = alloca ptr, align 8
  store ptr %this, ptr %this.addr, align 8
  %this1 = load ptr, ptr %this.addr, align 8
  ret ptr %this1
}

; Function Attrs: mustprogress uwtable
define void @_ZN6google8protobuf10Int64Value9MergeImplERNS0_11MessageLiteERKS2_(ptr noundef nonnull align 8 dereferenceable(16) %to_msg, ptr noundef nonnull align 8 dereferenceable(16) %from_msg) #4 align 2 {
entry:
  %this.addr.i6 = alloca ptr, align 8
  %this.addr.i4 = alloca ptr, align 8
  %this.addr.i.i.i = alloca ptr, align 8
  %retval.i.i = alloca ptr, align 8
  %this.addr.i3.i = alloca ptr, align 8
  %default_instance.addr.i.i = alloca ptr, align 8
  %this.addr.i.i = alloca ptr, align 8
  %this.addr.i = alloca ptr, align 8
  %other.addr.i = alloca ptr, align 8
  %to_msg.addr = alloca ptr, align 8
  %from_msg.addr = alloca ptr, align 8
  %_this = alloca ptr, align 8
  %from = alloca ptr, align 8
  %ref.tmp = alloca %"class.absl::lts_20230802::log_internal::NullStream", align 1
  %cached_has_bits = alloca i32, align 4
  store ptr %to_msg, ptr %to_msg.addr, align 8
  store ptr %from_msg, ptr %from_msg.addr, align 8
  %0 = load ptr, ptr %to_msg.addr, align 8
  store ptr %0, ptr %_this, align 8
  %1 = load ptr, ptr %from_msg.addr, align 8
  store ptr %1, ptr %from, align 8
  br label %while.cond

while.cond:                                       ; preds = %while.body, %entry
  br i1 false, label %while.body, label %while.end

while.body:                                       ; preds = %while.cond
  %call = call noundef nonnull align 1 dereferenceable(1) ptr @_ZN4absl12lts_2023080212log_internal10NullStream14InternalStreamEv(ptr noundef nonnull align 1 dereferenceable(1) %ref.tmp)
  br label %while.cond, !llvm.loop !13

while.end:                                        ; preds = %while.cond
  store i32 0, ptr %cached_has_bits, align 4
  %2 = load ptr, ptr %from, align 8
  %call1 = call noundef i64 @_ZNK6google8protobuf10Int64Value15_internal_valueEv(ptr noundef nonnull align 8 dereferenceable(32) %2)
  %cmp = icmp ne i64 %call1, 0
  br i1 %cmp, label %if.then, label %if.end

if.then:                                          ; preds = %while.end
  %3 = load ptr, ptr %from, align 8
  %4 = getelementptr inbounds %"class.google::protobuf::Int64Value", ptr %3, i32 0, i32 1
  %value_ = getelementptr inbounds %"struct.google::protobuf::Int64Value::Impl_", ptr %4, i32 0, i32 0
  %5 = load i64, ptr %value_, align 8
  %6 = load ptr, ptr %_this, align 8
  %7 = getelementptr inbounds %"class.google::protobuf::Int64Value", ptr %6, i32 0, i32 1
  %value_2 = getelementptr inbounds %"struct.google::protobuf::Int64Value::Impl_", ptr %7, i32 0, i32 0
  store i64 %5, ptr %value_2, align 8
  br label %if.end

if.end:                                           ; preds = %if.then, %while.end
  %8 = load ptr, ptr %_this, align 8
  %_internal_metadata_ = getelementptr inbounds %"class.google::protobuf::MessageLite", ptr %8, i32 0, i32 1
  %9 = load ptr, ptr %from, align 8
  %_internal_metadata_3 = getelementptr inbounds %"class.google::protobuf::MessageLite", ptr %9, i32 0, i32 1
  store ptr %_internal_metadata_, ptr %this.addr.i, align 8
  store ptr %_internal_metadata_3, ptr %other.addr.i, align 8
  %this1.i = load ptr, ptr %this.addr.i, align 8
  %10 = load ptr, ptr %other.addr.i, align 8
  store ptr %10, ptr %this.addr.i.i, align 8
  %this1.i.i = load ptr, ptr %this.addr.i.i, align 8
  store ptr %this1.i.i, ptr %this.addr.i6, align 8
  %this1.i7 = load ptr, ptr %this.addr.i6, align 8
  %11 = load i64, ptr %this1.i7, align 8
  %and.i8 = and i64 %11, 1
  %tobool.i9 = icmp ne i64 %and.i8, 0
  br i1 %tobool.i9, label %if.then.i, label %_ZN6google8protobuf8internal16InternalMetadata9MergeFromINS0_15UnknownFieldSetEEEvRKS2_.exit

if.then.i:                                        ; preds = %if.end
  %12 = load ptr, ptr %other.addr.i, align 8
  store ptr %12, ptr %this.addr.i3.i, align 8
  store ptr null, ptr %default_instance.addr.i.i, align 8
  %this1.i4.i = load ptr, ptr %this.addr.i3.i, align 8
  store ptr %this1.i4.i, ptr %this.addr.i.i.i, align 8
  %this1.i.i.i = load ptr, ptr %this.addr.i.i.i, align 8
  store ptr %this1.i.i.i, ptr %this.addr.i4, align 8
  %this1.i5 = load ptr, ptr %this.addr.i4, align 8
  %13 = load i64, ptr %this1.i5, align 8
  %and.i = and i64 %13, 1
  %tobool.i = icmp ne i64 %and.i, 0
  br i1 %tobool.i, label %if.then.i.i, label %if.else.i.i

if.then.i.i:                                      ; preds = %if.then.i
  %call2.i.i = call noundef ptr @_ZNK6google8protobuf8internal16InternalMetadata8PtrValueINS2_9ContainerINS0_15UnknownFieldSetEEEEEPT_v(ptr noundef nonnull align 8 dereferenceable(8) %this1.i4.i)
  %unknown_fields.i.i = getelementptr inbounds %"struct.google::protobuf::internal::InternalMetadata::Container", ptr %call2.i.i, i32 0, i32 1
  store ptr %unknown_fields.i.i, ptr %retval.i.i, align 8
  br label %_ZNK6google8protobuf8internal16InternalMetadata14unknown_fieldsINS0_15UnknownFieldSetEEERKT_PFS7_vE.exit.i

if.else.i.i:                                      ; preds = %if.then.i
  %14 = load ptr, ptr %default_instance.addr.i.i, align 8
  %call3.i.i = call noundef nonnull align 8 dereferenceable(24) ptr %14()
  store ptr %call3.i.i, ptr %retval.i.i, align 8
  br label %_ZNK6google8protobuf8internal16InternalMetadata14unknown_fieldsINS0_15UnknownFieldSetEEERKT_PFS7_vE.exit.i

_ZNK6google8protobuf8internal16InternalMetadata14unknown_fieldsINS0_15UnknownFieldSetEEERKT_PFS7_vE.exit.i: ; preds = %if.else.i.i, %if.then.i.i
  %15 = load ptr, ptr %retval.i.i, align 8
  call void @_ZN6google8protobuf8internal16InternalMetadata11DoMergeFromINS0_15UnknownFieldSetEEEvRKT_(ptr noundef nonnull align 8 dereferenceable(8) %this1.i, ptr noundef nonnull align 8 dereferenceable(24) %15)
  br label %_ZN6google8protobuf8internal16InternalMetadata9MergeFromINS0_15UnknownFieldSetEEEvRKS2_.exit

_ZN6google8protobuf8internal16InternalMetadata9MergeFromINS0_15UnknownFieldSetEEEvRKS2_.exit: ; preds = %_ZNK6google8protobuf8internal16InternalMetadata14unknown_fieldsINS0_15UnknownFieldSetEEERKT_PFS7_vE.exit.i, %if.end
  ret void
}